target datalayout = "e-m:e-p270:32:32-p271:32:32-p272:64:64-i64:64-i128:128-f80:128-n8:16:32:64-S128"
target triple = "x86_64-pc-linux-gnu"

%struct._zend_array = type { %struct._zend_refcounted_h, %union.anon.0, i32, %union.anon.1, i32, i32, i32, i32, i64, ptr }
%struct._zend_refcounted_h = type { i32, %union.anon }
%union.anon = type { i32 }
%union.anon.0 = type { i32 }
%union.anon.1 = type { ptr }
%struct._zend_string = type { %struct._zend_refcounted_h, i64, i64, [1 x i8] }
%struct._zend_op_array = type { i8, [3 x i8], i32, ptr, ptr, ptr, i32, i32, ptr, ptr, ptr, ptr, i32, i32, i32, i32, ptr, ptr, ptr, ptr, ptr, i32, i32, ptr, ptr, ptr, i32, i32, i32, i32, ptr, ptr, [6 x ptr] }
%struct._zend_class_entry = type { i8, ptr, %union.anon.8, i32, i32, i32, i32, ptr, ptr, ptr, %struct._zend_array, %struct._zend_array, %struct._zend_array, ptr, ptr, ptr, ptr, ptr, ptr, ptr, ptr, ptr, ptr, ptr, ptr, ptr, ptr, ptr, ptr, ptr, ptr, ptr, %union.anon.9, ptr, ptr, ptr, ptr, i32, i32, %union.anon.10, ptr, ptr, ptr, ptr, i32, ptr, ptr, %union.anon.11 }
%union.anon.8 = type { ptr }
%union.anon.9 = type { ptr }
%union.anon.10 = type { ptr }
%union.anon.11 = type { %struct.anon.12 }
%struct.anon.12 = type { ptr, i32, i32 }

@stderr = external global ptr, align 8
@.str.13 = private unnamed_addr constant [10 x i8] c"CV%d($%s)\00", align 1
@.str.14 = private unnamed_addr constant [4 x i8] c"V%d\00", align 1
@.str.15 = private unnamed_addr constant [4 x i8] c"T%d\00", align 1
@.str.16 = private unnamed_addr constant [4 x i8] c"X%d\00", align 1
@.str.22 = private unnamed_addr constant [3 x i8] c"%s\00", align 1
@.str.69 = private unnamed_addr constant [2 x i8] c"\0A\00", align 1
@.str.70 = private unnamed_addr constant [7 x i8] c"%s::%s\00", align 1
@.str.71 = private unnamed_addr constant [7 x i8] c"$_main\00", align 1
@.str.104 = private unnamed_addr constant [3 x i8] c"\22\0A\00", align 1
@.str.105 = private unnamed_addr constant [20 x i8] c"\0ACV Variables for \22\00", align 1
@.str.106 = private unnamed_addr constant [5 x i8] c"    \00", align 1

; Function Attrs: nounwind uwtable
define void @zend_dump_var(ptr noundef %0, i8 noundef zeroext %1, i32 noundef %2) #0 {
  %4 = alloca ptr, align 8
  %5 = alloca i8, align 1
  %6 = alloca i32, align 4
  store ptr %0, ptr %4, align 8
  store i8 %1, ptr %5, align 1
  store i32 %2, ptr %6, align 4
  %7 = load i8, ptr %5, align 1
  %8 = zext i8 %7 to i32
  %9 = icmp eq i32 %8, 8
  br i1 %9, label %10, label %29

10:                                               ; preds = %3
  %11 = load i32, ptr %6, align 4
  %12 = load ptr, ptr %4, align 8
  %13 = getelementptr inbounds %struct._zend_op_array, ptr %12, i32 0, i32 14
  %14 = load i32, ptr %13, align 8
  %15 = icmp slt i32 %11, %14
  br i1 %15, label %16, label %29

16:                                               ; preds = %10
  %17 = load ptr, ptr @stderr, align 8
  %18 = load i32, ptr %6, align 4
  %19 = load ptr, ptr %4, align 8
  %20 = getelementptr inbounds %struct._zend_op_array, ptr %19, i32 0, i32 19
  %21 = load ptr, ptr %20, align 8
  %22 = load i32, ptr %6, align 4
  %23 = sext i32 %22 to i64
  %24 = getelementptr inbounds ptr, ptr %21, i64 %23
  %25 = load ptr, ptr %24, align 8
  %26 = getelementptr inbounds %struct._zend_string, ptr %25, i32 0, i32 3
  %27 = getelementptr inbounds [1 x i8], ptr %26, i64 0, i64 0
  %28 = call i32 (ptr, ptr, ...) @fprintf(ptr noundef %17, ptr noundef @.str.13, i32 noundef %18, ptr noundef %27) #4
  br label %52

29:                                               ; preds = %10, %3
  %30 = load i8, ptr %5, align 1
  %31 = zext i8 %30 to i32
  %32 = icmp eq i32 %31, 4
  br i1 %32, label %33, label %37

33:                                               ; preds = %29
  %34 = load ptr, ptr @stderr, align 8
  %35 = load i32, ptr %6, align 4
  %36 = call i32 (ptr, ptr, ...) @fprintf(ptr noundef %34, ptr noundef @.str.14, i32 noundef %35) #4
  br label %51

37:                                               ; preds = %29
  %38 = load i8, ptr %5, align 1
  %39 = zext i8 %38 to i32
  %40 = and i32 %39, 6
  %41 = icmp eq i32 %40, 2
  br i1 %41, label %42, label %46

42:                                               ; preds = %37
  %43 = load ptr, ptr @stderr, align 8
  %44 = load i32, ptr %6, align 4
  %45 = call i32 (ptr, ptr, ...) @fprintf(ptr noundef %43, ptr noundef @.str.15, i32 noundef %44) #4
  br label %50

46:                                               ; preds = %37
  %47 = load ptr, ptr @stderr, align 8
  %48 = load i32, ptr %6, align 4
  %49 = call i32 (ptr, ptr, ...) @fprintf(ptr noundef %47, ptr noundef @.str.16, i32 noundef %48) #4
  br label %50

50:                                               ; preds = %46, %42
  br label %51

51:                                               ; preds = %50, %33
  br label %52

52:                                               ; preds = %51, %16
  ret void
}

; Function Attrs: nounwind uwtable
define hidden void @zend_dump_op_array_name(ptr noundef %0) #0 {
  %2 = alloca ptr, align 8
  store ptr %0, ptr %2, align 8
  %3 = load ptr, ptr %2, align 8
  %4 = getelementptr inbounds %struct._zend_op_array, ptr %3, i32 0, i32 3
  %5 = load ptr, ptr %4, align 8
  %6 = icmp ne ptr %5, null
  br i1 %6, label %7, label %43

7:                                                ; preds = %1
  %8 = load ptr, ptr %2, align 8
  %9 = getelementptr inbounds %struct._zend_op_array, ptr %8, i32 0, i32 4
  %10 = load ptr, ptr %9, align 8
  %11 = icmp ne ptr %10, null
  br i1 %11, label %12, label %34

12:                                               ; preds = %7
  %13 = load ptr, ptr %2, align 8
  %14 = getelementptr inbounds %struct._zend_op_array, ptr %13, i32 0, i32 4
  %15 = load ptr, ptr %14, align 8
  %16 = getelementptr inbounds %struct._zend_class_entry, ptr %15, i32 0, i32 1
  %17 = load ptr, ptr %16, align 8
  %18 = icmp ne ptr %17, null
  br i1 %18, label %19, label %34

19:                                               ; preds = %12
  %20 = load ptr, ptr @stderr, align 8
  %21 = load ptr, ptr %2, align 8
  %22 = getelementptr inbounds %struct._zend_op_array, ptr %21, i32 0, i32 4
  %23 = load ptr, ptr %22, align 8
  %24 = getelementptr inbounds %struct._zend_class_entry, ptr %23, i32 0, i32 1
  %25 = load ptr, ptr %24, align 8
  %26 = getelementptr inbounds %struct._zend_string, ptr %25, i32 0, i32 3
  %27 = getelementptr inbounds [1 x i8], ptr %26, i64 0, i64 0
  %28 = load ptr, ptr %2, align 8
  %29 = getelementptr inbounds %struct._zend_op_array, ptr %28, i32 0, i32 3
  %30 = load ptr, ptr %29, align 8
  %31 = getelementptr inbounds %struct._zend_string, ptr %30, i32 0, i32 3
  %32 = getelementptr inbounds [1 x i8], ptr %31, i64 0, i64 0
  %33 = call i32 (ptr, ptr, ...) @fprintf(ptr noundef %20, ptr noundef @.str.70, ptr noundef %27, ptr noundef %32) #4
  br label %42

34:                                               ; preds = %12, %7
  %35 = load ptr, ptr @stderr, align 8
  %36 = load ptr, ptr %2, align 8
  %37 = getelementptr inbounds %struct._zend_op_array, ptr %36, i32 0, i32 3
  %38 = load ptr, ptr %37, align 8
  %39 = getelementptr inbounds %struct._zend_string, ptr %38, i32 0, i32 3
  %40 = getelementptr inbounds [1 x i8], ptr %39, i64 0, i64 0
  %41 = call i32 (ptr, ptr, ...) @fprintf(ptr noundef %35, ptr noundef @.str.22, ptr noundef %40) #4
  br label %42

42:                                               ; preds = %34, %19
  br label %46

43:                                               ; preds = %1
  %44 = load ptr, ptr @stderr, align 8
  %45 = call i32 (ptr, ptr, ...) @fprintf(ptr noundef %44, ptr noundef @.str.22, ptr noundef @.str.71) #4
  br label %46

46:                                               ; preds = %43, %42
  ret void
}

; Function Attrs: nounwind uwtable
define hidden void @zend_dump_variables(ptr noundef %0) #0 {
  %2 = alloca ptr, align 8
  %3 = alloca i32, align 4
  store ptr %0, ptr %2, align 8
  %4 = load ptr, ptr @stderr, align 8
  %5 = call i32 (ptr, ptr, ...) @fprintf(ptr noundef %4, ptr noundef @.str.105) #4
  %6 = load ptr, ptr %2, align 8
  call void @zend_dump_op_array_name(ptr noundef %6)
  %7 = load ptr, ptr @stderr, align 8
  %8 = call i32 (ptr, ptr, ...) @fprintf(ptr noundef %7, ptr noundef @.str.104) #4
  store i32 0, ptr %3, align 4
  br label %9

9:                                                ; preds = %22, %1
  %10 = load i32, ptr %3, align 4
  %11 = load ptr, ptr %2, align 8
  %12 = getelementptr inbounds %struct._zend_op_array, ptr %11, i32 0, i32 14
  %13 = load i32, ptr %12, align 8
  %14 = icmp slt i32 %10, %13
  br i1 %14, label %15, label %25

15:                                               ; preds = %9
  %16 = load ptr, ptr @stderr, align 8
  %17 = call i32 (ptr, ptr, ...) @fprintf(ptr noundef %16, ptr noundef @.str.106) #4
  %18 = load ptr, ptr %2, align 8
  %19 = load i32, ptr %3, align 4
  call void @zend_dump_var(ptr noundef %18, i8 noundef zeroext 8, i32 noundef %19)
  %20 = load ptr, ptr @stderr, align 8
  %21 = call i32 (ptr, ptr, ...) @fprintf(ptr noundef %20, ptr noundef @.str.69) #4
  br label %22

22:                                               ; preds = %15
  %23 = load i32, ptr %3, align 4
  %24 = add nsw i32 %23, 1
  store i32 %24, ptr %3, align 4
  br label %9

25:                                               ; preds = %9
  ret void
}