; Function Attrs: nofree nounwind uwtable
define hidden void @zend_dump_variables(ptr nocapture noundef readonly %0) local_unnamed_addr #3 {
  %2 = load ptr, ptr @stderr, align 8
  %3 = tail call i64 @fwrite(ptr nonnull @.str.105, i64 19, i64 1, ptr %2) #7
  %4 = getelementptr inbounds i8, ptr %0, i64 8
  %5 = load ptr, ptr %4, align 8
  %.not.i = icmp eq ptr %5, null
  br i1 %.not.i, label %20, label %6

6:                                                ; preds = %1
  %7 = getelementptr inbounds i8, ptr %0, i64 16
  %8 = load ptr, ptr %7, align 8
  %.not8.i = icmp eq ptr %8, null
  br i1 %.not8.i, label %17, label %9

9:                                                ; preds = %6
  %10 = getelementptr inbounds i8, ptr %8, i64 8
  %11 = load ptr, ptr %10, align 8
  %.not9.i = icmp eq ptr %11, null
  br i1 %.not9.i, label %17, label %12

12:                                               ; preds = %9
  %13 = load ptr, ptr @stderr, align 8
  %14 = getelementptr inbounds i8, ptr %11, i64 24
  %15 = getelementptr inbounds i8, ptr %5, i64 24
  %16 = tail call i32 (ptr, ptr, ...) @fprintf(ptr noundef %13, ptr noundef nonnull @.str.70, ptr noundef nonnull %14, ptr noundef nonnull %15) #8
  br label %zend_dump_op_array_name.exit

17:                                               ; preds = %9, %6
  %18 = load ptr, ptr @stderr, align 8
  %19 = getelementptr inbounds i8, ptr %5, i64 24
  %fputs.i = tail call i32 @fputs(ptr nonnull %19, ptr %18) #7
  br label %zend_dump_op_array_name.exit

20:                                               ; preds = %1
  %21 = load ptr, ptr @stderr, align 8
  %22 = tail call i64 @fwrite(ptr nonnull @.str.71, i64 6, i64 1, ptr %21) #7
  br label %zend_dump_op_array_name.exit

zend_dump_op_array_name.exit:                     ; preds = %12, %17, %20
  %23 = load ptr, ptr @stderr, align 8
  %24 = tail call i64 @fwrite(ptr nonnull @.str.104, i64 2, i64 1, ptr %23) #7
  %25 = getelementptr inbounds i8, ptr %0, i64 80
  %26 = load i32, ptr %25, align 8
  %27 = icmp sgt i32 %26, 0
  br i1 %27, label %.lr.ph, label %._crit_edge

.lr.ph:                                           ; preds = %zend_dump_op_array_name.exit
  %28 = getelementptr inbounds i8, ptr %0, i64 112
  br label %29

29:                                               ; preds = %.lr.ph, %zend_dump_var.exit
  %indvars.iv = phi i64 [ 0, %.lr.ph ], [ %indvars.iv.next, %zend_dump_var.exit ]
  %30 = load ptr, ptr @stderr, align 8
  %31 = tail call i64 @fwrite(ptr nonnull @.str.106, i64 4, i64 1, ptr %30) #7
  %32 = load i32, ptr %25, align 8
  %33 = sext i32 %32 to i64
  %34 = icmp slt i64 %indvars.iv, %33
  %35 = load ptr, ptr @stderr, align 8
  br i1 %34, label %36, label %.thread.i

36:                                               ; preds = %29
  %37 = load ptr, ptr %28, align 8
  %38 = getelementptr inbounds ptr, ptr %37, i64 %indvars.iv
  %39 = load ptr, ptr %38, align 8
  %40 = getelementptr inbounds i8, ptr %39, i64 24
  %41 = trunc i64 %indvars.iv to i32
  %42 = tail call i32 (ptr, ptr, ...) @fprintf(ptr noundef %35, ptr noundef nonnull @.str.13, i32 noundef %41, ptr noundef nonnull %40) #8
  br label %zend_dump_var.exit

.thread.i:                                        ; preds = %29
  %43 = trunc i64 %indvars.iv to i32
  %44 = tail call i32 (ptr, ptr, ...) @fprintf(ptr noundef %35, ptr noundef nonnull @.str.16, i32 noundef %43) #8
  br label %zend_dump_var.exit

zend_dump_var.exit:                               ; preds = %36, %.thread.i
  %45 = load ptr, ptr @stderr, align 8
  %fputc = tail call i32 @fputc(i32 10, ptr %45)
  %indvars.iv.next = add nuw nsw i64 %indvars.iv, 1
  %46 = load i32, ptr %25, align 8
  %47 = sext i32 %46 to i64
  %48 = icmp slt i64 %indvars.iv.next, %47
  br i1 %48, label %29, label %._crit_edge

._crit_edge:                                      ; preds = %zend_dump_var.exit, %zend_dump_op_array_name.exit
  ret void
}